target datalayout = "e-m:e-p270:32:32-p271:32:32-p272:64:64-i64:64-i128:128-f80:128-n8:16:32:64-S128"
target triple = "x86_64-pc-linux-gnu"

%struct.AVPixFmtDescriptor = type { ptr, i8, i8, i8, i64, [4 x %struct.AVComponentDescriptor], ptr }
%struct.AVComponentDescriptor = type { i32, i32, i32, i32, i32 }

; Function Attrs: nounwind uwtable
define internal i32 @query_formats(ptr noundef %0, ptr noundef %1, ptr noundef %2) #0 {
  %4 = alloca i32, align 4
  %5 = alloca ptr, align 8
  %6 = alloca ptr, align 8
  %7 = alloca ptr, align 8
  %8 = alloca ptr, align 8
  %9 = alloca ptr, align 8
  %10 = alloca i32, align 4
  %11 = alloca i32, align 4
  %12 = alloca i32, align 4
  store ptr %0, ptr %5, align 8, !tbaa !4
  store ptr %1, ptr %6, align 8, !tbaa !9
  store ptr %2, ptr %7, align 8, !tbaa !9
  call void @llvm.lifetime.start.p0(i64 8, ptr %8) #9
  store ptr null, ptr %8, align 8, !tbaa !12
  call void @llvm.lifetime.start.p0(i64 8, ptr %9) #9
  call void @llvm.lifetime.start.p0(i64 4, ptr %10) #9
  call void @llvm.lifetime.start.p0(i64 4, ptr %11) #9
  store i32 0, ptr %10, align 4, !tbaa !14
  br label %13

13:                                               ; preds = %53, %3
  %14 = load i32, ptr %10, align 4, !tbaa !14
  %15 = call ptr @av_pix_fmt_desc_get(i32 noundef %14)
  store ptr %15, ptr %9, align 8, !tbaa !16
  %16 = icmp ne ptr %15, null
  br i1 %16, label %17, label %56

17:                                               ; preds = %13
  %18 = load ptr, ptr %9, align 8, !tbaa !16
  %19 = getelementptr inbounds nuw %struct.AVPixFmtDescriptor, ptr %18, i32 0, i32 4
  %20 = load i64, ptr %19, align 8, !tbaa !18
  %21 = and i64 %20, 2
  %22 = icmp ne i64 %21, 0
  br i1 %22, label %52, label %23

23:                                               ; preds = %17
  %24 = load ptr, ptr %9, align 8, !tbaa !16
  %25 = getelementptr inbounds nuw %struct.AVPixFmtDescriptor, ptr %24, i32 0, i32 4
  %26 = load i64, ptr %25, align 8, !tbaa !18
  %27 = and i64 %26, 8
  %28 = icmp ne i64 %27, 0
  br i1 %28, label %52, label %29

29:                                               ; preds = %23
  %30 = load ptr, ptr %9, align 8, !tbaa !16
  %31 = getelementptr inbounds nuw %struct.AVPixFmtDescriptor, ptr %30, i32 0, i32 4
  %32 = load i64, ptr %31, align 8, !tbaa !18
  %33 = and i64 %32, 4
  %34 = icmp ne i64 %33, 0
  br i1 %34, label %52, label %35

35:                                               ; preds = %29
  %36 = load ptr, ptr %9, align 8, !tbaa !16
  %37 = getelementptr inbounds nuw %struct.AVPixFmtDescriptor, ptr %36, i32 0, i32 2
  %38 = load i8, ptr %37, align 1, !tbaa !22
  %39 = zext i8 %38 to i32
  %40 = load ptr, ptr %9, align 8, !tbaa !16
  %41 = getelementptr inbounds nuw %struct.AVPixFmtDescriptor, ptr %40, i32 0, i32 3
  %42 = load i8, ptr %41, align 2, !tbaa !23
  %43 = zext i8 %42 to i32
  %44 = icmp ne i32 %39, %43
  br i1 %44, label %52, label %45

45:                                               ; preds = %35
  %46 = load i32, ptr %10, align 4, !tbaa !14
  %47 = sext i32 %46 to i64
  %48 = call i32 @ff_add_format(ptr noundef %8, i64 noundef %47)
  store i32 %48, ptr %11, align 4, !tbaa !14
  %49 = icmp slt i32 %48, 0
  br i1 %49, label %50, label %52

50:                                               ; preds = %45
  %51 = load i32, ptr %11, align 4, !tbaa !14
  store i32 %51, ptr %4, align 4
  store i32 1, ptr %12, align 4
  br label %62

52:                                               ; preds = %45, %35, %29, %23, %17
  br label %53

53:                                               ; preds = %52
  %54 = load i32, ptr %10, align 4, !tbaa !14
  %55 = add nsw i32 %54, 1
  store i32 %55, ptr %10, align 4, !tbaa !14
  br label %13, !llvm.loop !24

56:                                               ; preds = %13
  %57 = load ptr, ptr %5, align 8, !tbaa !4
  %58 = load ptr, ptr %6, align 8, !tbaa !9
  %59 = load ptr, ptr %7, align 8, !tbaa !9
  %60 = load ptr, ptr %8, align 8, !tbaa !12
  %61 = call i32 @ff_set_common_formats2(ptr noundef %57, ptr noundef %58, ptr noundef %59, ptr noundef %60)
  store i32 %61, ptr %4, align 4
  store i32 1, ptr %12, align 4
  br label %62

62:                                               ; preds = %56, %50
  call void @llvm.lifetime.end.p0(i64 4, ptr %11) #9
  call void @llvm.lifetime.end.p0(i64 4, ptr %10) #9
  call void @llvm.lifetime.end.p0(i64 8, ptr %9) #9
  call void @llvm.lifetime.end.p0(i64 8, ptr %8) #9
  %63 = load i32, ptr %4, align 4
  ret i32 %63
}