; Function Attrs: nounwind uwtable
define internal i32 @query_formats(ptr noundef %0, ptr noundef %1, ptr noundef %2) #0 {
  %4 = alloca ptr, align 8
  call void @llvm.lifetime.start.p0(i64 8, ptr nonnull %4) #9
  store ptr null, ptr %4, align 8, !tbaa !4
  %5 = tail call ptr @av_pix_fmt_desc_get(i32 noundef 0) #9
  %.not20 = icmp eq ptr %5, null
  br i1 %.not20, label %._crit_edge, label %.lr.ph

.lr.ph:                                           ; preds = %3, %18
  %indvars.iv = phi i64 [ %indvars.iv.next, %18 ], [ 0, %3 ]
  %6 = phi ptr [ %20, %18 ], [ %5, %3 ]
  %7 = getelementptr inbounds nuw i8, ptr %6, i64 16
  %8 = load i64, ptr %7, align 8, !tbaa !9
  %9 = and i64 %8, 14
  %or.cond19 = icmp eq i64 %9, 0
  br i1 %or.cond19, label %10, label %18

10:                                               ; preds = %.lr.ph
  %11 = getelementptr inbounds nuw i8, ptr %6, i64 9
  %12 = load i8, ptr %11, align 1, !tbaa !13
  %13 = getelementptr inbounds nuw i8, ptr %6, i64 10
  %14 = load i8, ptr %13, align 2, !tbaa !14
  %.not18 = icmp eq i8 %12, %14
  br i1 %.not18, label %15, label %18

15:                                               ; preds = %10
  %16 = call i32 @ff_add_format(ptr noundef nonnull %4, i64 noundef %indvars.iv) #9
  %17 = icmp slt i32 %16, 0
  br i1 %17, label %.loopexit, label %18

18:                                               ; preds = %.lr.ph, %10, %15
  %indvars.iv.next = add nuw nsw i64 %indvars.iv, 1
  %19 = trunc nuw i64 %indvars.iv.next to i32
  %20 = call ptr @av_pix_fmt_desc_get(i32 noundef %19) #9
  %.not = icmp eq ptr %20, null
  br i1 %.not, label %._crit_edge.loopexit, label %.lr.ph, !llvm.loop !15

._crit_edge.loopexit:                             ; preds = %18
  %.pre = load ptr, ptr %4, align 8, !tbaa !4
  br label %._crit_edge

._crit_edge:                                      ; preds = %._crit_edge.loopexit, %3
  %21 = phi ptr [ %.pre, %._crit_edge.loopexit ], [ null, %3 ]
  %22 = call i32 @ff_set_common_formats2(ptr noundef %0, ptr noundef %1, ptr noundef %2, ptr noundef %21) #9
  br label %.loopexit

.loopexit:                                        ; preds = %15, %._crit_edge
  %.0 = phi i32 [ %22, %._crit_edge ], [ %16, %15 ]
  call void @llvm.lifetime.end.p0(i64 8, ptr nonnull %4) #9
  ret i32 %.0
}